; Function Attrs: mustprogress nounwind uwtable
define dso_local void @_ZNK4llvm5APInt7usub_ovERKS0_Rb(ptr dead_on_unwind noalias writable writeonly sret(%"class.llvm::APInt") align 8 captures(none) %0, ptr noundef nonnull readonly align 8 captures(none) dereferenceable(12) %1, ptr noundef nonnull readonly align 8 captures(none) dereferenceable(12) %2, ptr noundef nonnull writeonly align 1 captures(none) dereferenceable(1) %3) local_unnamed_addr #0 align 2 {
  %5 = getelementptr inbounds nuw i8, ptr %1, i64 8
  %6 = load i32, ptr %5, align 8
  %7 = icmp ult i32 %6, 65
  br i1 %7, label %_ZN4llvm5APIntD2Ev.exit.thread, label %.lr.ph.preheader.i.i.i

.lr.ph.preheader.i.i.i:                           ; preds = %4
  %8 = zext i32 %6 to i64
  %9 = add nuw nsw i64 %8, 63
  %10 = lshr i64 %9, 3
  %11 = and i64 %10, 1073741816
  %12 = tail call noalias noundef nonnull ptr @_Znam(i64 noundef %11) #21
  %13 = load ptr, ptr %1, align 8
  tail call void @llvm.memcpy.p0.p0.i64(ptr nonnull align 8 %12, ptr align 8 %13, i64 %11, i1 false)
  tail call void @llvm.experimental.noalias.scope.decl(metadata !240)
  %14 = load ptr, ptr %2, align 8, !noalias !240
  %15 = lshr i64 %9, 6
  br label %.lr.ph.i.i.i

.lr.ph.i.i.i:                                     ; preds = %26, %.lr.ph.preheader.i.i.i
  %indvars.iv.i.i.i = phi i64 [ 0, %.lr.ph.preheader.i.i.i ], [ %indvars.iv.next.i.i.i, %26 ]
  %.022.i.i.i = phi i1 [ true, %.lr.ph.preheader.i.i.i ], [ %27, %26 ]
  %16 = getelementptr inbounds nuw i64, ptr %12, i64 %indvars.iv.i.i.i
  %17 = load i64, ptr %16, align 8, !noalias !240
  %18 = getelementptr inbounds nuw i64, ptr %14, i64 %indvars.iv.i.i.i
  %19 = load i64, ptr %18, align 8, !noalias !240
  br i1 %.022.i.i.i, label %23, label %20

20:                                               ; preds = %.lr.ph.i.i.i
  %.neg.i.i.i = xor i64 %19, -1
  %21 = add i64 %17, %.neg.i.i.i
  %22 = icmp uge i64 %21, %17
  br label %26

23:                                               ; preds = %.lr.ph.i.i.i
  %24 = sub i64 %17, %19
  %25 = icmp ugt i64 %19, %17
  br label %26

26:                                               ; preds = %23, %20
  %.sink.i.i.i = phi i64 [ %24, %23 ], [ %21, %20 ]
  %.1.in.i.i.i = phi i1 [ %25, %23 ], [ %22, %20 ]
  store i64 %.sink.i.i.i, ptr %16, align 8, !noalias !240
  %indvars.iv.next.i.i.i = add nuw nsw i64 %indvars.iv.i.i.i, 1
  %exitcond.not.i.i.i = icmp eq i64 %indvars.iv.next.i.i.i, %15
  %27 = xor i1 %.1.in.i.i.i, true
  br i1 %exitcond.not.i.i.i, label %_ZN4llvm5APIntD2Ev.exit, label %.lr.ph.i.i.i, !llvm.loop !13

_ZN4llvm5APIntD2Ev.exit.thread:                   ; preds = %4
  %28 = load i64, ptr %1, align 8
  %29 = load i64, ptr %2, align 8, !noalias !240
  %30 = sub i64 %28, %29
  %31 = add nuw nsw i32 %6, 63
  %32 = and i32 %31, 63
  %33 = xor i32 %32, 63
  %34 = zext nneg i32 %33 to i64
  %35 = lshr i64 -1, %34
  %36 = icmp eq i32 %6, 0
  %spec.store.select.i.i.i = select i1 %36, i64 0, i64 %35
  %37 = and i64 %30, %spec.store.select.i.i.i
  %38 = getelementptr inbounds nuw i8, ptr %0, i64 8
  store i32 %6, ptr %38, align 8, !alias.scope !240
  store i64 %37, ptr %0, align 8, !alias.scope !240
  %39 = icmp ule i64 %37, %28
  br label %_ZNK4llvm5APInt3ugtERKS0_.exit

_ZN4llvm5APIntD2Ev.exit:                          ; preds = %26
  %40 = ptrtoint ptr %12 to i64
  %41 = add i32 %6, 63
  %42 = and i32 %41, 63
  %43 = xor i32 %42, 63
  %44 = zext nneg i32 %43 to i64
  %45 = lshr i64 -1, %44
  %46 = add nuw nsw i64 %15, 4294967295
  %47 = and i64 %46, 4294967295
  %48 = getelementptr inbounds nuw i64, ptr %12, i64 %47
  %49 = load i64, ptr %48, align 8, !noalias !240
  %50 = and i64 %49, %45
  store i64 %50, ptr %48, align 8, !noalias !240
  %51 = getelementptr inbounds nuw i8, ptr %0, i64 8
  store i32 %6, ptr %51, align 8, !alias.scope !240
  store i64 %40, ptr %0, align 8, !alias.scope !240
  br label %52

52:                                               ; preds = %53, %_ZN4llvm5APIntD2Ev.exit
  %indvars.iv.i.i.i.i = phi i64 [ %54, %53 ], [ %15, %_ZN4llvm5APIntD2Ev.exit ]
  %.not.i.i.i.i = icmp eq i64 %indvars.iv.i.i.i.i, 0
  br i1 %.not.i.i.i.i, label %_ZNK4llvm5APInt3ugtERKS0_.exit, label %53

53:                                               ; preds = %52
  %54 = add nsw i64 %indvars.iv.i.i.i.i, -1
  %55 = getelementptr inbounds nuw i64, ptr %12, i64 %54
  %56 = load i64, ptr %55, align 8
  %57 = getelementptr inbounds nuw i64, ptr %13, i64 %54
  %58 = load i64, ptr %57, align 8
  %.not13.i.i.i.i = icmp eq i64 %56, %58
  br i1 %.not13.i.i.i.i, label %52, label %59, !llvm.loop !23

59:                                               ; preds = %53
  %60 = icmp ule i64 %56, %58
  br label %_ZNK4llvm5APInt3ugtERKS0_.exit

_ZNK4llvm5APInt3ugtERKS0_.exit:                   ; preds = %52, %_ZN4llvm5APIntD2Ev.exit.thread, %59
  %.0.i.i.i = phi i1 [ %39, %_ZN4llvm5APIntD2Ev.exit.thread ], [ %60, %59 ], [ true, %52 ]
  %61 = xor i1 %.0.i.i.i, true
  %62 = zext i1 %61 to i8
  store i8 %62, ptr %3, align 1
  ret void
}